; Function Attrs: mustprogress uwtable
define hidden void @_ZN7nanogui5Popup14perform_layoutEP10NVGcontext(ptr noundef nonnull align 8 dereferenceable(220) %0, ptr noundef %1) unnamed_addr #0 align 2 {
  %3 = getelementptr inbounds i8, ptr %0, i64 32
  %4 = load ptr, ptr %3, align 8
  %.not = icmp eq ptr %4, null
  br i1 %.not, label %5, label %13

5:                                                ; preds = %2
  %6 = getelementptr inbounds i8, ptr %0, i64 64
  %7 = getelementptr inbounds i8, ptr %0, i64 72
  %8 = load ptr, ptr %7, align 8
  %9 = load ptr, ptr %6, align 8
  %10 = ptrtoint ptr %8 to i64
  %11 = ptrtoint ptr %9 to i64
  %12 = sub i64 %10, %11
  %.not3 = icmp eq i64 %12, 8
  br i1 %.not3, label %_ZN7nanogui5ArrayIiLm2EEC2Ei.exit.critedge, label %13

13:                                               ; preds = %5, %2
  tail call void @_ZN7nanogui6Widget14perform_layoutEP10NVGcontext(ptr noundef nonnull align 8 dereferenceable(140) %0, ptr noundef %1)
  br label %26

_ZN7nanogui5ArrayIiLm2EEC2Ei.exit.critedge:       ; preds = %5
  %14 = load ptr, ptr %9, align 8
  %15 = getelementptr inbounds i8, ptr %14, i64 40
  store i32 0, ptr %15, align 8
  %.sroa_idx5 = getelementptr inbounds i8, ptr %14, i64 44
  store i32 0, ptr %.sroa_idx5, align 4
  %16 = load ptr, ptr %6, align 8
  %17 = load ptr, ptr %16, align 8
  %18 = getelementptr inbounds i8, ptr %0, i64 48
  %19 = getelementptr inbounds i8, ptr %17, i64 48
  %20 = load i64, ptr %18, align 8
  store i64 %20, ptr %19, align 8
  %21 = load ptr, ptr %6, align 8
  %22 = load ptr, ptr %21, align 8
  %23 = load ptr, ptr %22, align 8
  %24 = getelementptr inbounds i8, ptr %23, i64 104
  %25 = load ptr, ptr %24, align 8
  tail call void %25(ptr noundef nonnull align 8 dereferenceable(140) %22, ptr noundef %1)
  br label %26

26:                                               ; preds = %_ZN7nanogui5ArrayIiLm2EEC2Ei.exit.critedge, %13
  %27 = getelementptr inbounds i8, ptr %0, i64 216
  %28 = load i32, ptr %27, align 8
  %29 = icmp eq i32 %28, 0
  br i1 %29, label %30, label %36

30:                                               ; preds = %26
  %31 = getelementptr inbounds i8, ptr %0, i64 48
  %32 = load i32, ptr %31, align 8
  %33 = getelementptr inbounds i8, ptr %0, i64 200
  %34 = load i32, ptr %33, align 8
  %35 = sub nsw i32 %34, %32
  store i32 %35, ptr %33, align 8
  br label %36

36:                                               ; preds = %30, %26
  ret void
}